; ModuleID = '31/1598.c'
source_filename = "31/1598.c"
target datalayout = "e-m:e-p270:32:32-p271:32:32-p272:64:64-i64:64-f80:128-n8:16:32:64-S128"
target triple = "x86_64-pc-linux-gnu"

%struct.student = type { [100 x i8], %struct.student* }

@.str = private unnamed_addr constant [4 x i8] c"end\00", align 1
@.str.1 = private unnamed_addr constant [4 x i8] c"%s\0A\00", align 1

; Function Attrs: noinline nounwind uwtable
define dso_local i32 @main() #0 {
  %1 = alloca i32, align 4
  %2 = alloca i32, align 4
  %3 = alloca i32, align 4
  %4 = alloca %struct.student*, align 8
  %5 = alloca %struct.student*, align 8
  %6 = alloca %struct.student*, align 8
  %7 = alloca %struct.student*, align 8
  store i32 0, i32* %1, align 4
  store i32 0, i32* %2, align 4
  %8 = call noalias i8* @malloc(i64 100) #4
  %9 = bitcast i8* %8 to %struct.student*
  store %struct.student* %9, %struct.student** %6, align 8
  store %struct.student* %9, %struct.student** %5, align 8
  %10 = load %struct.student*, %struct.student** %5, align 8
  %11 = getelementptr inbounds %struct.student, %struct.student* %10, i32 0, i32 0
  %12 = getelementptr inbounds [100 x i8], [100 x i8]* %11, i64 0, i64 0
  %13 = call i32 (i8*, ...) bitcast (i32 (...)* @gets to i32 (i8*, ...)*)(i8* %12)
  store %struct.student* null, %struct.student** %4, align 8
  br label %14

14:                                               ; preds = %31, %0
  %15 = load %struct.student*, %struct.student** %5, align 8
  %16 = getelementptr inbounds %struct.student, %struct.student* %15, i32 0, i32 0
  %17 = getelementptr inbounds [100 x i8], [100 x i8]* %16, i64 0, i64 0
  %18 = call i32 @strcmp(i8* %17, i8* getelementptr inbounds ([4 x i8], [4 x i8]* @.str, i64 0, i64 0)) #5
  %19 = icmp ne i32 %18, 0
  br i1 %19, label %20, label %39

20:                                               ; preds = %14
  %21 = load i32, i32* %2, align 4
  %22 = add nsw i32 %21, 1
  store i32 %22, i32* %2, align 4
  %23 = load i32, i32* %2, align 4
  %24 = icmp eq i32 %23, 1
  br i1 %24, label %25, label %27

25:                                               ; preds = %20
  %26 = load %struct.student*, %struct.student** %5, align 8
  store %struct.student* %26, %struct.student** %4, align 8
  br label %31

27:                                               ; preds = %20
  %28 = load %struct.student*, %struct.student** %5, align 8
  %29 = load %struct.student*, %struct.student** %6, align 8
  %30 = getelementptr inbounds %struct.student, %struct.student* %29, i32 0, i32 1
  store %struct.student* %28, %struct.student** %30, align 8
  br label %31

31:                                               ; preds = %27, %25
  %32 = load %struct.student*, %struct.student** %5, align 8
  store %struct.student* %32, %struct.student** %6, align 8
  %33 = call noalias i8* @malloc(i64 100) #4
  %34 = bitcast i8* %33 to %struct.student*
  store %struct.student* %34, %struct.student** %5, align 8
  %35 = load %struct.student*, %struct.student** %5, align 8
  %36 = getelementptr inbounds %struct.student, %struct.student* %35, i32 0, i32 0
  %37 = getelementptr inbounds [100 x i8], [100 x i8]* %36, i64 0, i64 0
  %38 = call i32 (i8*, ...) bitcast (i32 (...)* @gets to i32 (i8*, ...)*)(i8* %37)
  br label %14

39:                                               ; preds = %14
  %40 = load %struct.student*, %struct.student** %6, align 8
  %41 = getelementptr inbounds %struct.student, %struct.student* %40, i32 0, i32 1
  store %struct.student* null, %struct.student** %41, align 8
  store i32 0, i32* %3, align 4
  br label %42

42:                                               ; preds = %65, %39
  %43 = load i32, i32* %3, align 4
  %44 = load i32, i32* %2, align 4
  %45 = icmp slt i32 %43, %44
  br i1 %45, label %46, label %68

46:                                               ; preds = %42
  %47 = load %struct.student*, %struct.student** %4, align 8
  store %struct.student* %47, %struct.student** %7, align 8
  br label %48

48:                                               ; preds = %53, %46
  %49 = load %struct.student*, %struct.student** %7, align 8
  %50 = getelementptr inbounds %struct.student, %struct.student* %49, i32 0, i32 1
  %51 = load %struct.student*, %struct.student** %50, align 8
  %52 = icmp ne %struct.student* %51, null
  br i1 %52, label %53, label %58

53:                                               ; preds = %48
  %54 = load %struct.student*, %struct.student** %7, align 8
  store %struct.student* %54, %struct.student** %5, align 8
  %55 = load %struct.student*, %struct.student** %7, align 8
  %56 = getelementptr inbounds %struct.student, %struct.student* %55, i32 0, i32 1
  %57 = load %struct.student*, %struct.student** %56, align 8
  store %struct.student* %57, %struct.student** %7, align 8
  br label %48

58:                                               ; preds = %48
  %59 = load %struct.student*, %struct.student** %7, align 8
  %60 = getelementptr inbounds %struct.student, %struct.student* %59, i32 0, i32 0
  %61 = getelementptr inbounds [100 x i8], [100 x i8]* %60, i64 0, i64 0
  %62 = call i32 (i8*, ...) @printf(i8* getelementptr inbounds ([4 x i8], [4 x i8]* @.str.1, i64 0, i64 0), i8* %61)
  %63 = load %struct.student*, %struct.student** %5, align 8
  %64 = getelementptr inbounds %struct.student, %struct.student* %63, i32 0, i32 1
  store %struct.student* null, %struct.student** %64, align 8
  br label %65

65:                                               ; preds = %58
  %66 = load i32, i32* %3, align 4
  %67 = add nsw i32 %66, 1
  store i32 %67, i32* %3, align 4
  br label %42

68:                                               ; preds = %42
  %69 = load i32, i32* %1, align 4
  ret i32 %69
}

; Function Attrs: nounwind
declare dso_local noalias i8* @malloc(i64) #1

declare dso_local i32 @gets(...) #2

; Function Attrs: nounwind readonly
declare dso_local i32 @strcmp(i8*, i8*) #3

declare dso_local i32 @printf(i8*, ...) #2


!llvm.module.flags = !{!0}
!llvm.ident = !{!1}

!0 = !{i32 1, !"wchar_size", i32 4}
!1 = !{!"clang version 10.0.0-4ubuntu1 "}
